; Function Attrs: nounwind sspstrong uwtable
define dso_local void @qio_channel_tls_handshake(ptr noundef %ioc, ptr noundef %func, ptr noundef %opaque, ptr noundef %destroy, ptr noundef %context) local_unnamed_addr #0 {
entry:
  %_now.i.i = alloca %struct.timeval, align 8
  %call = tail call ptr @qio_task_new(ptr noundef %ioc, ptr noundef %func, ptr noundef %opaque, ptr noundef %destroy) #8
  call void @llvm.lifetime.start.p0(i64 16, ptr nonnull %_now.i.i)
  %0 = load i32, ptr @trace_events_enabled_count, align 4
  %tobool.i.i = icmp ne i32 %0, 0
  %1 = load i16, ptr @_TRACE_QIO_CHANNEL_TLS_HANDSHAKE_START_DSTATE, align 2
  %tobool4.i.i = icmp ne i16 %1, 0
  %or.cond.i.i = select i1 %tobool.i.i, i1 %tobool4.i.i, i1 false
  br i1 %or.cond.i.i, label %land.lhs.true5.i.i, label %trace_qio_channel_tls_handshake_start.exit

land.lhs.true5.i.i:                               ; preds = %entry
  %2 = load i32, ptr @qemu_loglevel, align 4
  %and.i.i.i = and i32 %2, 32768
  %cmp.i.not.i.i = icmp eq i32 %and.i.i.i, 0
  br i1 %cmp.i.not.i.i, label %trace_qio_channel_tls_handshake_start.exit, label %if.then.i.i

if.then.i.i:                                      ; preds = %land.lhs.true5.i.i
  %3 = load i8, ptr @message_with_timestamp, align 1
  %tobool7.i.i = trunc i8 %3 to i1
  br i1 %tobool7.i.i, label %if.then8.i.i, label %if.else.i.i

if.then8.i.i:                                     ; preds = %if.then.i.i
  %call9.i.i = call i32 @gettimeofday(ptr noundef nonnull %_now.i.i, ptr noundef null) #8
  %call10.i.i = tail call i32 @qemu_get_thread_id() #8
  %4 = load i64, ptr %_now.i.i, align 8
  %tv_usec.i.i = getelementptr inbounds nuw i8, ptr %_now.i.i, i64 8
  %5 = load i64, ptr %tv_usec.i.i, align 8
  tail call void (ptr, ...) @qemu_log(ptr noundef nonnull @.str.8, i32 noundef %call10.i.i, i64 noundef %4, i64 noundef %5, ptr noundef %ioc) #8
  br label %trace_qio_channel_tls_handshake_start.exit

if.else.i.i:                                      ; preds = %if.then.i.i
  tail call void (ptr, ...) @qemu_log(ptr noundef nonnull @.str.9, ptr noundef %ioc) #8
  br label %trace_qio_channel_tls_handshake_start.exit

trace_qio_channel_tls_handshake_start.exit:       ; preds = %entry, %land.lhs.true5.i.i, %if.then8.i.i, %if.else.i.i
  call void @llvm.lifetime.end.p0(i64 16, ptr nonnull %_now.i.i)
  tail call fastcc void @qio_channel_tls_handshake_task(ptr noundef %ioc, ptr noundef %call, ptr noundef %context)
  ret void
}